; Function Attrs: nounwind uwtable
define dso_local ptr @lpInsertInteger(ptr noundef %0, i64 noundef %1, ptr noundef %2, i32 noundef %3, ptr noundef captures(address_is_null) %4) local_unnamed_addr #3 {
  %6 = alloca [9 x i8], align 1
  call void @llvm.lifetime.start.p0(i64 9, ptr nonnull %6) #20
  %or.cond.i = icmp ult i64 %1, 128
  br i1 %or.cond.i, label %7, label %9

7:                                                ; preds = %5
  %8 = trunc nuw nsw i64 %1 to i8
  store i8 %8, ptr %6, align 1, !tbaa !5
  br label %lpEncodeIntegerGetType.exit

9:                                                ; preds = %5
  %10 = add i64 %1, 4096
  %or.cond3.i = icmp ult i64 %10, 8192
  br i1 %or.cond3.i, label %11, label %19

11:                                               ; preds = %9
  %12 = lshr i64 %1, 50
  %13 = and i64 %12, 8192
  %spec.select.i = add nsw i64 %13, %1
  %14 = lshr i64 %spec.select.i, 8
  %15 = trunc i64 %14 to i8
  %16 = or i8 %15, -64
  store i8 %16, ptr %6, align 1, !tbaa !5
  %17 = trunc i64 %1 to i8
  %18 = getelementptr inbounds nuw i8, ptr %6, i64 1
  store i8 %17, ptr %18, align 1, !tbaa !5
  br label %lpEncodeIntegerGetType.exit

19:                                               ; preds = %9
  %20 = add i64 %1, 32768
  %or.cond5.i = icmp ult i64 %20, 65536
  br i1 %or.cond5.i, label %21, label %27

21:                                               ; preds = %19
  store i8 -15, ptr %6, align 1, !tbaa !5
  %22 = trunc i64 %1 to i8
  %23 = getelementptr inbounds nuw i8, ptr %6, i64 1
  store i8 %22, ptr %23, align 1, !tbaa !5
  %24 = lshr i64 %1, 8
  %25 = trunc i64 %24 to i8
  %26 = getelementptr inbounds nuw i8, ptr %6, i64 2
  store i8 %25, ptr %26, align 1, !tbaa !5
  br label %lpEncodeIntegerGetType.exit

27:                                               ; preds = %19
  %28 = add i64 %1, 8388608
  %or.cond7.i = icmp ult i64 %28, 16777216
  %29 = lshr i64 %1, 8
  %30 = trunc i64 %29 to i8
  %31 = getelementptr inbounds nuw i8, ptr %6, i64 2
  br i1 %or.cond7.i, label %32, label %38

32:                                               ; preds = %27
  store i8 -14, ptr %6, align 1, !tbaa !5
  %33 = trunc i64 %1 to i8
  %34 = getelementptr inbounds nuw i8, ptr %6, i64 1
  store i8 %33, ptr %34, align 1, !tbaa !5
  store i8 %30, ptr %31, align 1, !tbaa !5
  %35 = lshr i64 %1, 16
  %36 = trunc i64 %35 to i8
  %37 = getelementptr inbounds nuw i8, ptr %6, i64 3
  store i8 %36, ptr %37, align 1, !tbaa !5
  br label %lpEncodeIntegerGetType.exit

38:                                               ; preds = %27
  %39 = add i64 %1, 2147483648
  %or.cond9.i = icmp ult i64 %39, 4294967296
  %40 = trunc i64 %1 to i8
  %41 = getelementptr inbounds nuw i8, ptr %6, i64 1
  %42 = lshr i64 %1, 16
  %43 = trunc i64 %42 to i8
  %44 = getelementptr inbounds nuw i8, ptr %6, i64 3
  %45 = lshr i64 %1, 24
  %46 = trunc i64 %45 to i8
  %47 = getelementptr inbounds nuw i8, ptr %6, i64 4
  br i1 %or.cond9.i, label %48, label %49

48:                                               ; preds = %38
  store i8 -13, ptr %6, align 1, !tbaa !5
  store i8 %40, ptr %41, align 1, !tbaa !5
  store i8 %30, ptr %31, align 1, !tbaa !5
  store i8 %43, ptr %44, align 1, !tbaa !5
  store i8 %46, ptr %47, align 1, !tbaa !5
  br label %lpEncodeIntegerGetType.exit

49:                                               ; preds = %38
  store i8 -12, ptr %6, align 1, !tbaa !5
  store i8 %40, ptr %41, align 1, !tbaa !5
  store i8 %30, ptr %31, align 1, !tbaa !5
  store i8 %43, ptr %44, align 1, !tbaa !5
  store i8 %46, ptr %47, align 1, !tbaa !5
  %50 = lshr i64 %1, 32
  %51 = trunc i64 %50 to i8
  %52 = getelementptr inbounds nuw i8, ptr %6, i64 5
  store i8 %51, ptr %52, align 1, !tbaa !5
  %53 = lshr i64 %1, 40
  %54 = trunc i64 %53 to i8
  %55 = getelementptr inbounds nuw i8, ptr %6, i64 6
  store i8 %54, ptr %55, align 1, !tbaa !5
  %56 = lshr i64 %1, 48
  %57 = trunc i64 %56 to i8
  %58 = getelementptr inbounds nuw i8, ptr %6, i64 7
  store i8 %57, ptr %58, align 1, !tbaa !5
  %59 = lshr i64 %1, 56
  %60 = trunc nuw i64 %59 to i8
  %61 = getelementptr inbounds nuw i8, ptr %6, i64 8
  store i8 %60, ptr %61, align 1, !tbaa !5
  br label %lpEncodeIntegerGetType.exit

lpEncodeIntegerGetType.exit:                      ; preds = %7, %11, %21, %32, %48, %49
  %.sink.i = phi i32 [ 1, %7 ], [ 2, %11 ], [ 3, %21 ], [ 4, %32 ], [ 5, %48 ], [ 9, %49 ]
  %62 = call ptr @lpInsert(ptr noundef %0, ptr noundef null, ptr noundef nonnull %6, i32 noundef %.sink.i, ptr noundef %2, i32 noundef %3, ptr noundef %4)
  call void @llvm.lifetime.end.p0(i64 9, ptr nonnull %6) #20
  ret ptr %62
}